target datalayout = "e-m:e-p270:32:32-p271:32:32-p272:64:64-i64:64-i128:128-f80:128-n8:16:32:64-S128"
target triple = "x86_64-pc-linux-gnu"

@hf_pfcp_nokia_default_qos_id = internal global i32 0, align 4
@.str.2685 = private unnamed_addr constant [6 x i8] c" : %u\00", align 1

; Function Attrs: null_pointer_is_valid sspstrong uwtable
define internal i32 @dissect_pfcp_nokia_default_qos_id(ptr noundef %0, ptr noundef %1, ptr noundef %2, ptr noundef %3) #0 {
  %5 = alloca ptr, align 8
  %6 = alloca ptr, align 8
  %7 = alloca ptr, align 8
  %8 = alloca ptr, align 8
  %9 = alloca i32, align 4
  store ptr %0, ptr %5, align 8
  store ptr %1, ptr %6, align 8
  store ptr %2, ptr %7, align 8
  store ptr %3, ptr %8, align 8
  call void @llvm.lifetime.start.p0(i64 4, ptr %9) #13
  %10 = load ptr, ptr %7, align 8
  %11 = load i32, ptr @hf_pfcp_nokia_default_qos_id, align 4
  %12 = load ptr, ptr %5, align 8
  %13 = call ptr @proto_tree_add_item_ret_uint(ptr noundef %10, i32 noundef %11, ptr noundef %12, i32 noundef 0, i32 noundef 1, i32 noundef 0, ptr noundef %9)
  %14 = load ptr, ptr %7, align 8
  %15 = call ptr @proto_tree_get_parent(ptr noundef %14)
  %16 = load i32, ptr %9, align 4
  call void (ptr, ptr, ...) @proto_item_append_text(ptr noundef %15, ptr noundef @.str.2685, i32 noundef %16)
  call void @llvm.lifetime.end.p0(i64 4, ptr %9) #13
  ret i32 1
}